target datalayout = "e-m:e-p270:32:32-p271:32:32-p272:64:64-i64:64-i128:128-f80:128-n8:16:32:64-S128"
target triple = "x86_64-pc-linux-gnu"

%"class.llvm::StringRef" = type { ptr, i64 }

@.str = private unnamed_addr constant [8 x i8] c"unknown\00", align 1
@.str.1 = private unnamed_addr constant [8 x i8] c"aarch64\00", align 1
@.str.2 = private unnamed_addr constant [11 x i8] c"aarch64_32\00", align 1
@.str.3 = private unnamed_addr constant [11 x i8] c"aarch64_be\00", align 1
@.str.4 = private unnamed_addr constant [7 x i8] c"amdgcn\00", align 1
@.str.5 = private unnamed_addr constant [8 x i8] c"amdil64\00", align 1
@.str.6 = private unnamed_addr constant [6 x i8] c"amdil\00", align 1
@.str.7 = private unnamed_addr constant [4 x i8] c"arc\00", align 1
@.str.8 = private unnamed_addr constant [4 x i8] c"arm\00", align 1
@.str.9 = private unnamed_addr constant [6 x i8] c"armeb\00", align 1
@.str.10 = private unnamed_addr constant [4 x i8] c"avr\00", align 1
@.str.11 = private unnamed_addr constant [6 x i8] c"bpfeb\00", align 1
@.str.12 = private unnamed_addr constant [6 x i8] c"bpfel\00", align 1
@.str.13 = private unnamed_addr constant [5 x i8] c"csky\00", align 1
@.str.14 = private unnamed_addr constant [5 x i8] c"dxil\00", align 1
@.str.15 = private unnamed_addr constant [8 x i8] c"hexagon\00", align 1
@.str.16 = private unnamed_addr constant [8 x i8] c"hsail64\00", align 1
@.str.17 = private unnamed_addr constant [6 x i8] c"hsail\00", align 1
@.str.18 = private unnamed_addr constant [8 x i8] c"kalimba\00", align 1
@.str.19 = private unnamed_addr constant [6 x i8] c"lanai\00", align 1
@.str.20 = private unnamed_addr constant [12 x i8] c"loongarch32\00", align 1
@.str.21 = private unnamed_addr constant [12 x i8] c"loongarch64\00", align 1
@.str.22 = private unnamed_addr constant [5 x i8] c"m68k\00", align 1
@.str.23 = private unnamed_addr constant [7 x i8] c"mips64\00", align 1
@.str.24 = private unnamed_addr constant [9 x i8] c"mips64el\00", align 1
@.str.25 = private unnamed_addr constant [5 x i8] c"mips\00", align 1
@.str.26 = private unnamed_addr constant [7 x i8] c"mipsel\00", align 1
@.str.27 = private unnamed_addr constant [7 x i8] c"msp430\00", align 1
@.str.28 = private unnamed_addr constant [8 x i8] c"nvptx64\00", align 1
@.str.29 = private unnamed_addr constant [6 x i8] c"nvptx\00", align 1
@.str.30 = private unnamed_addr constant [10 x i8] c"powerpc64\00", align 1
@.str.31 = private unnamed_addr constant [12 x i8] c"powerpc64le\00", align 1
@.str.32 = private unnamed_addr constant [8 x i8] c"powerpc\00", align 1
@.str.33 = private unnamed_addr constant [10 x i8] c"powerpcle\00", align 1
@.str.34 = private unnamed_addr constant [5 x i8] c"r600\00", align 1
@.str.35 = private unnamed_addr constant [15 x i8] c"renderscript32\00", align 1
@.str.36 = private unnamed_addr constant [15 x i8] c"renderscript64\00", align 1
@.str.37 = private unnamed_addr constant [8 x i8] c"riscv32\00", align 1
@.str.38 = private unnamed_addr constant [8 x i8] c"riscv64\00", align 1
@.str.39 = private unnamed_addr constant [6 x i8] c"shave\00", align 1
@.str.40 = private unnamed_addr constant [6 x i8] c"sparc\00", align 1
@.str.41 = private unnamed_addr constant [8 x i8] c"sparcel\00", align 1
@.str.42 = private unnamed_addr constant [8 x i8] c"sparcv9\00", align 1
@.str.43 = private unnamed_addr constant [7 x i8] c"spir64\00", align 1
@.str.44 = private unnamed_addr constant [5 x i8] c"spir\00", align 1
@.str.45 = private unnamed_addr constant [6 x i8] c"spirv\00", align 1
@.str.46 = private unnamed_addr constant [8 x i8] c"spirv32\00", align 1
@.str.47 = private unnamed_addr constant [8 x i8] c"spirv64\00", align 1
@.str.48 = private unnamed_addr constant [6 x i8] c"s390x\00", align 1
@.str.49 = private unnamed_addr constant [4 x i8] c"tce\00", align 1
@.str.50 = private unnamed_addr constant [6 x i8] c"tcele\00", align 1
@.str.51 = private unnamed_addr constant [6 x i8] c"thumb\00", align 1
@.str.52 = private unnamed_addr constant [8 x i8] c"thumbeb\00", align 1
@.str.53 = private unnamed_addr constant [3 x i8] c"ve\00", align 1
@.str.54 = private unnamed_addr constant [7 x i8] c"wasm32\00", align 1
@.str.55 = private unnamed_addr constant [7 x i8] c"wasm64\00", align 1
@.str.56 = private unnamed_addr constant [5 x i8] c"i386\00", align 1
@.str.57 = private unnamed_addr constant [7 x i8] c"x86_64\00", align 1
@.str.58 = private unnamed_addr constant [6 x i8] c"xcore\00", align 1
@.str.59 = private unnamed_addr constant [7 x i8] c"xtensa\00", align 1

; Function Attrs: mustprogress nounwind uwtable
define linkonce_odr hidden noundef i64 @_ZNSt11char_traitsIcE6lengthEPKc(ptr noundef %0) #0 comdat align 2 {
  %2 = alloca ptr, align 8
  store ptr %0, ptr %2, align 8
  %3 = load ptr, ptr %2, align 8
  %4 = call i64 @strlen(ptr noundef %3) #7
  ret i64 %4
}

; Function Attrs: mustprogress nounwind uwtable
define linkonce_odr hidden void @_ZN4llvm9StringRefC2EPKc(ptr noundef nonnull align 8 dereferenceable(16) %0, ptr noundef %1) unnamed_addr #0 comdat align 2 {
  %3 = alloca ptr, align 8
  %4 = alloca ptr, align 8
  store ptr %0, ptr %3, align 8
  store ptr %1, ptr %4, align 8
  %5 = load ptr, ptr %3, align 8
  %6 = getelementptr inbounds nuw %"class.llvm::StringRef", ptr %5, i32 0, i32 0
  %7 = load ptr, ptr %4, align 8
  store ptr %7, ptr %6, align 8
  %8 = getelementptr inbounds nuw %"class.llvm::StringRef", ptr %5, i32 0, i32 1
  %9 = load ptr, ptr %4, align 8
  %10 = icmp ne ptr %9, null
  br i1 %10, label %11, label %14

11:                                               ; preds = %2
  %12 = load ptr, ptr %4, align 8
  %13 = call noundef i64 @_ZNSt11char_traitsIcE6lengthEPKc(ptr noundef %12)
  br label %15

14:                                               ; preds = %2
  br label %15

15:                                               ; preds = %14, %11
  %16 = phi i64 [ %13, %11 ], [ 0, %14 ]
  store i64 %16, ptr %8, align 8
  ret void
}

; Function Attrs: mustprogress nounwind uwtable
define dso_local { ptr, i64 } @_ZN4llvm6Triple15getArchTypeNameENS0_8ArchTypeE(i32 noundef %0) #0 align 2 {
  %2 = alloca %"class.llvm::StringRef", align 8
  %3 = alloca i32, align 4
  store i32 %0, ptr %3, align 4
  %4 = load i32, ptr %3, align 4
  switch i32 %4, label %65 [
    i32 0, label %5
    i32 3, label %6
    i32 5, label %7
    i32 4, label %8
    i32 26, label %9
    i32 44, label %10
    i32 43, label %11
    i32 6, label %12
    i32 1, label %13
    i32 2, label %14
    i32 7, label %15
    i32 9, label %16
    i32 8, label %17
    i32 10, label %18
    i32 11, label %19
    i32 12, label %20
    i32 46, label %21
    i32 45, label %22
    i32 52, label %23
    i32 54, label %24
    i32 13, label %25
    i32 14, label %26
    i32 15, label %27
    i32 18, label %28
    i32 19, label %29
    i32 16, label %30
    i32 17, label %31
    i32 20, label %32
    i32 42, label %33
    i32 41, label %34
    i32 23, label %35
    i32 24, label %36
    i32 21, label %37
    i32 22, label %38
    i32 25, label %39
    i32 57, label %40
    i32 58, label %41
    i32 27, label %42
    i32 28, label %43
    i32 53, label %44
    i32 29, label %45
    i32 31, label %46
    i32 30, label %47
    i32 48, label %48
    i32 47, label %49
    i32 49, label %50
    i32 50, label %51
    i32 51, label %52
    i32 32, label %53
    i32 33, label %54
    i32 34, label %55
    i32 35, label %56
    i32 36, label %57
    i32 59, label %58
    i32 55, label %59
    i32 56, label %60
    i32 37, label %61
    i32 38, label %62
    i32 39, label %63
    i32 40, label %64
  ]

5:                                                ; preds = %1
  call void @_ZN4llvm9StringRefC2EPKc(ptr noundef nonnull align 8 dereferenceable(16) %2, ptr noundef @.str)
  br label %66

6:                                                ; preds = %1
  call void @_ZN4llvm9StringRefC2EPKc(ptr noundef nonnull align 8 dereferenceable(16) %2, ptr noundef @.str.1)
  br label %66

7:                                                ; preds = %1
  call void @_ZN4llvm9StringRefC2EPKc(ptr noundef nonnull align 8 dereferenceable(16) %2, ptr noundef @.str.2)
  br label %66

8:                                                ; preds = %1
  call void @_ZN4llvm9StringRefC2EPKc(ptr noundef nonnull align 8 dereferenceable(16) %2, ptr noundef @.str.3)
  br label %66

9:                                                ; preds = %1
  call void @_ZN4llvm9StringRefC2EPKc(ptr noundef nonnull align 8 dereferenceable(16) %2, ptr noundef @.str.4)
  br label %66

10:                                               ; preds = %1
  call void @_ZN4llvm9StringRefC2EPKc(ptr noundef nonnull align 8 dereferenceable(16) %2, ptr noundef @.str.5)
  br label %66

11:                                               ; preds = %1
  call void @_ZN4llvm9StringRefC2EPKc(ptr noundef nonnull align 8 dereferenceable(16) %2, ptr noundef @.str.6)
  br label %66

12:                                               ; preds = %1
  call void @_ZN4llvm9StringRefC2EPKc(ptr noundef nonnull align 8 dereferenceable(16) %2, ptr noundef @.str.7)
  br label %66

13:                                               ; preds = %1
  call void @_ZN4llvm9StringRefC2EPKc(ptr noundef nonnull align 8 dereferenceable(16) %2, ptr noundef @.str.8)
  br label %66

14:                                               ; preds = %1
  call void @_ZN4llvm9StringRefC2EPKc(ptr noundef nonnull align 8 dereferenceable(16) %2, ptr noundef @.str.9)
  br label %66

15:                                               ; preds = %1
  call void @_ZN4llvm9StringRefC2EPKc(ptr noundef nonnull align 8 dereferenceable(16) %2, ptr noundef @.str.10)
  br label %66

16:                                               ; preds = %1
  call void @_ZN4llvm9StringRefC2EPKc(ptr noundef nonnull align 8 dereferenceable(16) %2, ptr noundef @.str.11)
  br label %66

17:                                               ; preds = %1
  call void @_ZN4llvm9StringRefC2EPKc(ptr noundef nonnull align 8 dereferenceable(16) %2, ptr noundef @.str.12)
  br label %66

18:                                               ; preds = %1
  call void @_ZN4llvm9StringRefC2EPKc(ptr noundef nonnull align 8 dereferenceable(16) %2, ptr noundef @.str.13)
  br label %66

19:                                               ; preds = %1
  call void @_ZN4llvm9StringRefC2EPKc(ptr noundef nonnull align 8 dereferenceable(16) %2, ptr noundef @.str.14)
  br label %66

20:                                               ; preds = %1
  call void @_ZN4llvm9StringRefC2EPKc(ptr noundef nonnull align 8 dereferenceable(16) %2, ptr noundef @.str.15)
  br label %66

21:                                               ; preds = %1
  call void @_ZN4llvm9StringRefC2EPKc(ptr noundef nonnull align 8 dereferenceable(16) %2, ptr noundef @.str.16)
  br label %66

22:                                               ; preds = %1
  call void @_ZN4llvm9StringRefC2EPKc(ptr noundef nonnull align 8 dereferenceable(16) %2, ptr noundef @.str.17)
  br label %66

23:                                               ; preds = %1
  call void @_ZN4llvm9StringRefC2EPKc(ptr noundef nonnull align 8 dereferenceable(16) %2, ptr noundef @.str.18)
  br label %66

24:                                               ; preds = %1
  call void @_ZN4llvm9StringRefC2EPKc(ptr noundef nonnull align 8 dereferenceable(16) %2, ptr noundef @.str.19)
  br label %66

25:                                               ; preds = %1
  call void @_ZN4llvm9StringRefC2EPKc(ptr noundef nonnull align 8 dereferenceable(16) %2, ptr noundef @.str.20)
  br label %66

26:                                               ; preds = %1
  call void @_ZN4llvm9StringRefC2EPKc(ptr noundef nonnull align 8 dereferenceable(16) %2, ptr noundef @.str.21)
  br label %66

27:                                               ; preds = %1
  call void @_ZN4llvm9StringRefC2EPKc(ptr noundef nonnull align 8 dereferenceable(16) %2, ptr noundef @.str.22)
  br label %66

28:                                               ; preds = %1
  call void @_ZN4llvm9StringRefC2EPKc(ptr noundef nonnull align 8 dereferenceable(16) %2, ptr noundef @.str.23)
  br label %66

29:                                               ; preds = %1
  call void @_ZN4llvm9StringRefC2EPKc(ptr noundef nonnull align 8 dereferenceable(16) %2, ptr noundef @.str.24)
  br label %66

30:                                               ; preds = %1
  call void @_ZN4llvm9StringRefC2EPKc(ptr noundef nonnull align 8 dereferenceable(16) %2, ptr noundef @.str.25)
  br label %66

31:                                               ; preds = %1
  call void @_ZN4llvm9StringRefC2EPKc(ptr noundef nonnull align 8 dereferenceable(16) %2, ptr noundef @.str.26)
  br label %66

32:                                               ; preds = %1
  call void @_ZN4llvm9StringRefC2EPKc(ptr noundef nonnull align 8 dereferenceable(16) %2, ptr noundef @.str.27)
  br label %66

33:                                               ; preds = %1
  call void @_ZN4llvm9StringRefC2EPKc(ptr noundef nonnull align 8 dereferenceable(16) %2, ptr noundef @.str.28)
  br label %66

34:                                               ; preds = %1
  call void @_ZN4llvm9StringRefC2EPKc(ptr noundef nonnull align 8 dereferenceable(16) %2, ptr noundef @.str.29)
  br label %66

35:                                               ; preds = %1
  call void @_ZN4llvm9StringRefC2EPKc(ptr noundef nonnull align 8 dereferenceable(16) %2, ptr noundef @.str.30)
  br label %66

36:                                               ; preds = %1
  call void @_ZN4llvm9StringRefC2EPKc(ptr noundef nonnull align 8 dereferenceable(16) %2, ptr noundef @.str.31)
  br label %66

37:                                               ; preds = %1
  call void @_ZN4llvm9StringRefC2EPKc(ptr noundef nonnull align 8 dereferenceable(16) %2, ptr noundef @.str.32)
  br label %66

38:                                               ; preds = %1
  call void @_ZN4llvm9StringRefC2EPKc(ptr noundef nonnull align 8 dereferenceable(16) %2, ptr noundef @.str.33)
  br label %66

39:                                               ; preds = %1
  call void @_ZN4llvm9StringRefC2EPKc(ptr noundef nonnull align 8 dereferenceable(16) %2, ptr noundef @.str.34)
  br label %66

40:                                               ; preds = %1
  call void @_ZN4llvm9StringRefC2EPKc(ptr noundef nonnull align 8 dereferenceable(16) %2, ptr noundef @.str.35)
  br label %66

41:                                               ; preds = %1
  call void @_ZN4llvm9StringRefC2EPKc(ptr noundef nonnull align 8 dereferenceable(16) %2, ptr noundef @.str.36)
  br label %66

42:                                               ; preds = %1
  call void @_ZN4llvm9StringRefC2EPKc(ptr noundef nonnull align 8 dereferenceable(16) %2, ptr noundef @.str.37)
  br label %66

43:                                               ; preds = %1
  call void @_ZN4llvm9StringRefC2EPKc(ptr noundef nonnull align 8 dereferenceable(16) %2, ptr noundef @.str.38)
  br label %66

44:                                               ; preds = %1
  call void @_ZN4llvm9StringRefC2EPKc(ptr noundef nonnull align 8 dereferenceable(16) %2, ptr noundef @.str.39)
  br label %66

45:                                               ; preds = %1
  call void @_ZN4llvm9StringRefC2EPKc(ptr noundef nonnull align 8 dereferenceable(16) %2, ptr noundef @.str.40)
  br label %66

46:                                               ; preds = %1
  call void @_ZN4llvm9StringRefC2EPKc(ptr noundef nonnull align 8 dereferenceable(16) %2, ptr noundef @.str.41)
  br label %66

47:                                               ; preds = %1
  call void @_ZN4llvm9StringRefC2EPKc(ptr noundef nonnull align 8 dereferenceable(16) %2, ptr noundef @.str.42)
  br label %66

48:                                               ; preds = %1
  call void @_ZN4llvm9StringRefC2EPKc(ptr noundef nonnull align 8 dereferenceable(16) %2, ptr noundef @.str.43)
  br label %66

49:                                               ; preds = %1
  call void @_ZN4llvm9StringRefC2EPKc(ptr noundef nonnull align 8 dereferenceable(16) %2, ptr noundef @.str.44)
  br label %66

50:                                               ; preds = %1
  call void @_ZN4llvm9StringRefC2EPKc(ptr noundef nonnull align 8 dereferenceable(16) %2, ptr noundef @.str.45)
  br label %66

51:                                               ; preds = %1
  call void @_ZN4llvm9StringRefC2EPKc(ptr noundef nonnull align 8 dereferenceable(16) %2, ptr noundef @.str.46)
  br label %66

52:                                               ; preds = %1
  call void @_ZN4llvm9StringRefC2EPKc(ptr noundef nonnull align 8 dereferenceable(16) %2, ptr noundef @.str.47)
  br label %66

53:                                               ; preds = %1
  call void @_ZN4llvm9StringRefC2EPKc(ptr noundef nonnull align 8 dereferenceable(16) %2, ptr noundef @.str.48)
  br label %66

54:                                               ; preds = %1
  call void @_ZN4llvm9StringRefC2EPKc(ptr noundef nonnull align 8 dereferenceable(16) %2, ptr noundef @.str.49)
  br label %66

55:                                               ; preds = %1
  call void @_ZN4llvm9StringRefC2EPKc(ptr noundef nonnull align 8 dereferenceable(16) %2, ptr noundef @.str.50)
  br label %66

56:                                               ; preds = %1
  call void @_ZN4llvm9StringRefC2EPKc(ptr noundef nonnull align 8 dereferenceable(16) %2, ptr noundef @.str.51)
  br label %66

57:                                               ; preds = %1
  call void @_ZN4llvm9StringRefC2EPKc(ptr noundef nonnull align 8 dereferenceable(16) %2, ptr noundef @.str.52)
  br label %66

58:                                               ; preds = %1
  call void @_ZN4llvm9StringRefC2EPKc(ptr noundef nonnull align 8 dereferenceable(16) %2, ptr noundef @.str.53)
  br label %66

59:                                               ; preds = %1
  call void @_ZN4llvm9StringRefC2EPKc(ptr noundef nonnull align 8 dereferenceable(16) %2, ptr noundef @.str.54)
  br label %66

60:                                               ; preds = %1
  call void @_ZN4llvm9StringRefC2EPKc(ptr noundef nonnull align 8 dereferenceable(16) %2, ptr noundef @.str.55)
  br label %66

61:                                               ; preds = %1
  call void @_ZN4llvm9StringRefC2EPKc(ptr noundef nonnull align 8 dereferenceable(16) %2, ptr noundef @.str.56)
  br label %66

62:                                               ; preds = %1
  call void @_ZN4llvm9StringRefC2EPKc(ptr noundef nonnull align 8 dereferenceable(16) %2, ptr noundef @.str.57)
  br label %66

63:                                               ; preds = %1
  call void @_ZN4llvm9StringRefC2EPKc(ptr noundef nonnull align 8 dereferenceable(16) %2, ptr noundef @.str.58)
  br label %66

64:                                               ; preds = %1
  call void @_ZN4llvm9StringRefC2EPKc(ptr noundef nonnull align 8 dereferenceable(16) %2, ptr noundef @.str.59)
  br label %66

65:                                               ; preds = %1
  unreachable

66:                                               ; preds = %64, %63, %62, %61, %60, %59, %58, %57, %56, %55, %54, %53, %52, %51, %50, %49, %48, %47, %46, %45, %44, %43, %42, %41, %40, %39, %38, %37, %36, %35, %34, %33, %32, %31, %30, %29, %28, %27, %26, %25, %24, %23, %22, %21, %20, %19, %18, %17, %16, %15, %14, %13, %12, %11, %10, %9, %8, %7, %6, %5
  %67 = load { ptr, i64 }, ptr %2, align 8
  ret { ptr, i64 } %67
}